; Function Attrs: nounwind uwtable
define hidden i32 @psa_driver_wrapper_sign_hash(ptr noundef %0, ptr noundef %1, i64 noundef %2, i32 noundef %3, ptr noundef %4, i64 noundef %5, ptr noundef %6, i64 noundef %7, ptr noundef %8) local_unnamed_addr #1 {
  %10 = getelementptr inbounds nuw i8, ptr %0, i64 4
  %11 = load i32, ptr %10, align 4
  %cond = icmp ult i32 %11, 256
  br i1 %cond, label %12, label %14

12:                                               ; preds = %9
  %13 = tail call i32 @psa_sign_hash_builtin(ptr noundef nonnull %0, ptr noundef %1, i64 noundef %2, i32 noundef %3, ptr noundef %4, i64 noundef %5, ptr noundef %6, i64 noundef %7, ptr noundef %8) #5
  br label %14

14:                                               ; preds = %9, %12
  %.0 = phi i32 [ %13, %12 ], [ -135, %9 ]
  ret i32 %.0
}